target datalayout = "e-m:e-p270:32:32-p271:32:32-p272:64:64-i64:64-i128:128-f80:128-n8:16:32:64-S128"
target triple = "x86_64-pc-linux-gnu"

%struct.AVFilterContext = type { ptr, ptr, ptr, ptr, ptr, i32, ptr, ptr, i32, ptr, ptr, i32, i32, ptr, ptr, ptr, ptr, i32, ptr, i32, i32 }
%struct.FadeContext = type { ptr, i32, i32, i32, i32, i32, i32, i32, i32, i32, i32, i32, i8, i8, [4 x i8], i32, i32, i64, i64, i64, i64, i32, [4 x i8], i32, ptr, ptr, ptr }
%struct.AVFilterLink = type { ptr, ptr, ptr, ptr, i32, i32, i32, i32, %struct.AVRational, i32, i32, i32, %struct.AVChannelLayout, %struct.AVRational, ptr, i32, %struct.AVFilterFormatsConfig, %struct.AVFilterFormatsConfig }
%struct.AVChannelLayout = type { i32, i32, %union.anon.1, ptr }
%union.anon.1 = type { i64 }
%struct.AVRational = type { i32, i32 }
%struct.AVFilterFormatsConfig = type { ptr, ptr, ptr, ptr, ptr }
%struct.AVPixFmtDescriptor = type { ptr, i8, i8, i8, i64, [4 x %struct.AVComponentDescriptor], ptr }
%struct.AVComponentDescriptor = type { i32, i32, i32, i32, i32 }

; Function Attrs: nounwind uwtable
define internal i32 @config_input(ptr noundef %0) #1 {
  %2 = alloca ptr, align 8
  %3 = alloca ptr, align 8
  %4 = alloca ptr, align 8
  %5 = alloca %struct.AVRational, align 4
  %6 = alloca %struct.AVRational, align 4
  store ptr %0, ptr %2, align 8, !tbaa !38
  call void @llvm.lifetime.start.p0(i64 8, ptr %3) #11
  %7 = load ptr, ptr %2, align 8, !tbaa !38
  %8 = getelementptr inbounds nuw %struct.AVFilterLink, ptr %7, i32 0, i32 2
  %9 = load ptr, ptr %8, align 8, !tbaa !44
  %10 = getelementptr inbounds nuw %struct.AVFilterContext, ptr %9, i32 0, i32 9
  %11 = load ptr, ptr %10, align 8, !tbaa !9
  store ptr %11, ptr %3, align 8, !tbaa !22
  call void @llvm.lifetime.start.p0(i64 8, ptr %4) #11
  %12 = load ptr, ptr %2, align 8, !tbaa !38
  %13 = getelementptr inbounds nuw %struct.AVFilterLink, ptr %12, i32 0, i32 5
  %14 = load i32, ptr %13, align 4, !tbaa !69
  %15 = call ptr @av_pix_fmt_desc_get(i32 noundef %14)
  store ptr %15, ptr %4, align 8, !tbaa !70
  %16 = load ptr, ptr %4, align 8, !tbaa !70
  %17 = getelementptr inbounds nuw %struct.AVPixFmtDescriptor, ptr %16, i32 0, i32 2
  %18 = load i8, ptr %17, align 1, !tbaa !72
  %19 = zext i8 %18 to i32
  %20 = load ptr, ptr %3, align 8, !tbaa !22
  %21 = getelementptr inbounds nuw %struct.FadeContext, ptr %20, i32 0, i32 6
  store i32 %19, ptr %21, align 4, !tbaa !74
  %22 = load ptr, ptr %4, align 8, !tbaa !70
  %23 = getelementptr inbounds nuw %struct.AVPixFmtDescriptor, ptr %22, i32 0, i32 3
  %24 = load i8, ptr %23, align 2, !tbaa !75
  %25 = zext i8 %24 to i32
  %26 = load ptr, ptr %3, align 8, !tbaa !22
  %27 = getelementptr inbounds nuw %struct.FadeContext, ptr %26, i32 0, i32 7
  store i32 %25, ptr %27, align 8, !tbaa !76
  %28 = load ptr, ptr %3, align 8, !tbaa !22
  %29 = getelementptr inbounds nuw %struct.FadeContext, ptr %28, i32 0, i32 14
  %30 = getelementptr inbounds [4 x i8], ptr %29, i64 0, i64 0
  %31 = load ptr, ptr %2, align 8, !tbaa !38
  %32 = getelementptr inbounds nuw %struct.AVFilterLink, ptr %31, i32 0, i32 5
  %33 = load i32, ptr %32, align 4, !tbaa !69
  %34 = call i32 @ff_fill_rgba_map(ptr noundef %30, i32 noundef %33)
  %35 = load ptr, ptr %4, align 8, !tbaa !70
  %36 = getelementptr inbounds nuw %struct.AVPixFmtDescriptor, ptr %35, i32 0, i32 5
  %37 = getelementptr inbounds [4 x %struct.AVComponentDescriptor], ptr %36, i64 0, i64 0
  %38 = getelementptr inbounds nuw %struct.AVComponentDescriptor, ptr %37, i32 0, i32 4
  %39 = load i32, ptr %38, align 8, !tbaa !77
  %40 = load ptr, ptr %3, align 8, !tbaa !22
  %41 = getelementptr inbounds nuw %struct.FadeContext, ptr %40, i32 0, i32 9
  store i32 %39, ptr %41, align 8, !tbaa !79
  %42 = load ptr, ptr %4, align 8, !tbaa !70
  %43 = getelementptr inbounds nuw %struct.AVPixFmtDescriptor, ptr %42, i32 0, i32 4
  %44 = load i64, ptr %43, align 8, !tbaa !80
  %45 = and i64 %44, 16
  %46 = icmp ne i64 %45, 0
  br i1 %46, label %47, label %48

47:                                               ; preds = %1
  br label %52

48:                                               ; preds = %1
  %49 = load ptr, ptr %4, align 8, !tbaa !70
  %50 = call i32 @av_get_bits_per_pixel(ptr noundef %49)
  %51 = ashr i32 %50, 3
  br label %52

52:                                               ; preds = %48, %47
  %53 = phi i32 [ 1, %47 ], [ %51, %48 ]
  %54 = load ptr, ptr %3, align 8, !tbaa !22
  %55 = getelementptr inbounds nuw %struct.FadeContext, ptr %54, i32 0, i32 8
  store i32 %53, ptr %55, align 4, !tbaa !81
  %56 = load ptr, ptr %4, align 8, !tbaa !70
  %57 = getelementptr inbounds nuw %struct.AVPixFmtDescriptor, ptr %56, i32 0, i32 4
  %58 = load i64, ptr %57, align 8, !tbaa !80
  %59 = and i64 %58, 128
  %60 = icmp ne i64 %59, 0
  %61 = xor i1 %60, true
  %62 = xor i1 %61, true
  %63 = zext i1 %62 to i32
  %64 = load ptr, ptr %3, align 8, !tbaa !22
  %65 = getelementptr inbounds nuw %struct.FadeContext, ptr %64, i32 0, i32 15
  %66 = load i32, ptr %65, align 4, !tbaa !32
  %67 = and i32 %66, %63
  store i32 %67, ptr %65, align 4, !tbaa !32
  %68 = load ptr, ptr %4, align 8, !tbaa !70
  %69 = getelementptr inbounds nuw %struct.AVPixFmtDescriptor, ptr %68, i32 0, i32 4
  %70 = load i64, ptr %69, align 8, !tbaa !80
  %71 = and i64 %70, 16
  %72 = trunc i64 %71 to i32
  %73 = load ptr, ptr %3, align 8, !tbaa !22
  %74 = getelementptr inbounds nuw %struct.FadeContext, ptr %73, i32 0, i32 16
  store i32 %72, ptr %74, align 8, !tbaa !82
  %75 = load ptr, ptr %4, align 8, !tbaa !70
  %76 = getelementptr inbounds nuw %struct.AVPixFmtDescriptor, ptr %75, i32 0, i32 4
  %77 = load i64, ptr %76, align 8, !tbaa !80
  %78 = and i64 %77, 32
  %79 = trunc i64 %78 to i8
  %80 = load ptr, ptr %3, align 8, !tbaa !22
  %81 = getelementptr inbounds nuw %struct.FadeContext, ptr %80, i32 0, i32 12
  store i8 %79, ptr %81, align 4, !tbaa !64
  %82 = load ptr, ptr %3, align 8, !tbaa !22
  %83 = getelementptr inbounds nuw %struct.FadeContext, ptr %82, i32 0, i32 16
  %84 = load i32, ptr %83, align 8, !tbaa !82
  %85 = icmp ne i32 %84, 0
  br i1 %85, label %92, label %86

86:                                               ; preds = %52
  %87 = load ptr, ptr %3, align 8, !tbaa !22
  %88 = getelementptr inbounds nuw %struct.FadeContext, ptr %87, i32 0, i32 12
  %89 = load i8, ptr %88, align 4, !tbaa !64
  %90 = zext i8 %89 to i32
  %91 = icmp ne i32 %90, 0
  br label %92

92:                                               ; preds = %86, %52
  %93 = phi i1 [ false, %52 ], [ %91, %86 ]
  %94 = zext i1 %93 to i32
  %95 = trunc i32 %94 to i8
  %96 = load ptr, ptr %3, align 8, !tbaa !22
  %97 = getelementptr inbounds nuw %struct.FadeContext, ptr %96, i32 0, i32 13
  store i8 %95, ptr %97, align 1, !tbaa !83
  %98 = load ptr, ptr %3, align 8, !tbaa !22
  %99 = getelementptr inbounds nuw %struct.FadeContext, ptr %98, i32 0, i32 18
  %100 = load i64, ptr %99, align 8, !tbaa !29
  %101 = icmp ne i64 %100, 0
  br i1 %101, label %102, label %115

102:                                              ; preds = %92
  %103 = load ptr, ptr %3, align 8, !tbaa !22
  %104 = getelementptr inbounds nuw %struct.FadeContext, ptr %103, i32 0, i32 18
  %105 = load i64, ptr %104, align 8, !tbaa !29
  %106 = getelementptr inbounds nuw %struct.AVRational, ptr %5, i32 0, i32 0
  store i32 1, ptr %106, align 4, !tbaa !84
  %107 = getelementptr inbounds nuw %struct.AVRational, ptr %5, i32 0, i32 1
  store i32 1000000, ptr %107, align 4, !tbaa !85
  %108 = load ptr, ptr %2, align 8, !tbaa !38
  %109 = getelementptr inbounds nuw %struct.AVFilterLink, ptr %108, i32 0, i32 13
  %110 = load i64, ptr %5, align 4
  %111 = load i64, ptr %109, align 8
  %112 = call i64 @av_rescale_q(i64 noundef %105, i64 %110, i64 %111) #13
  %113 = load ptr, ptr %3, align 8, !tbaa !22
  %114 = getelementptr inbounds nuw %struct.FadeContext, ptr %113, i32 0, i32 20
  store i64 %112, ptr %114, align 8, !tbaa !61
  br label %115

115:                                              ; preds = %102, %92
  %116 = load ptr, ptr %3, align 8, !tbaa !22
  %117 = getelementptr inbounds nuw %struct.FadeContext, ptr %116, i32 0, i32 17
  %118 = load i64, ptr %117, align 8, !tbaa !33
  %119 = icmp ne i64 %118, 0
  br i1 %119, label %120, label %133

120:                                              ; preds = %115
  %121 = load ptr, ptr %3, align 8, !tbaa !22
  %122 = getelementptr inbounds nuw %struct.FadeContext, ptr %121, i32 0, i32 17
  %123 = load i64, ptr %122, align 8, !tbaa !33
  %124 = getelementptr inbounds nuw %struct.AVRational, ptr %6, i32 0, i32 0
  store i32 1, ptr %124, align 4, !tbaa !84
  %125 = getelementptr inbounds nuw %struct.AVRational, ptr %6, i32 0, i32 1
  store i32 1000000, ptr %125, align 4, !tbaa !85
  %126 = load ptr, ptr %2, align 8, !tbaa !38
  %127 = getelementptr inbounds nuw %struct.AVFilterLink, ptr %126, i32 0, i32 13
  %128 = load i64, ptr %6, align 4
  %129 = load i64, ptr %127, align 8
  %130 = call i64 @av_rescale_q(i64 noundef %123, i64 %128, i64 %129) #13
  %131 = load ptr, ptr %3, align 8, !tbaa !22
  %132 = getelementptr inbounds nuw %struct.FadeContext, ptr %131, i32 0, i32 19
  store i64 %130, ptr %132, align 8, !tbaa !58
  br label %133

133:                                              ; preds = %120, %115
  %134 = load ptr, ptr %2, align 8, !tbaa !38
  %135 = getelementptr inbounds nuw %struct.AVFilterLink, ptr %134, i32 0, i32 5
  %136 = load i32, ptr %135, align 4, !tbaa !69
  %137 = call i32 @ff_fmt_is_in(i32 noundef %136, ptr noundef @studio_level_pix_fmts)
  %138 = icmp ne i32 %137, 0
  br i1 %138, label %139, label %151

139:                                              ; preds = %133
  %140 = load ptr, ptr %3, align 8, !tbaa !22
  %141 = getelementptr inbounds nuw %struct.FadeContext, ptr %140, i32 0, i32 15
  %142 = load i32, ptr %141, align 4, !tbaa !32
  %143 = icmp ne i32 %142, 0
  br i1 %143, label %151, label %144

144:                                              ; preds = %139
  %145 = load ptr, ptr %3, align 8, !tbaa !22
  %146 = getelementptr inbounds nuw %struct.FadeContext, ptr %145, i32 0, i32 9
  %147 = load i32, ptr %146, align 8, !tbaa !79
  %148 = sub nsw i32 %147, 8
  %149 = shl i32 1, %148
  %150 = mul nsw i32 16, %149
  br label %152

151:                                              ; preds = %139, %133
  br label %152

152:                                              ; preds = %151, %144
  %153 = phi i32 [ %150, %144 ], [ 0, %151 ]
  %154 = load ptr, ptr %3, align 8, !tbaa !22
  %155 = getelementptr inbounds nuw %struct.FadeContext, ptr %154, i32 0, i32 10
  store i32 %153, ptr %155, align 4, !tbaa !86
  %156 = load ptr, ptr %3, align 8, !tbaa !22
  %157 = getelementptr inbounds nuw %struct.FadeContext, ptr %156, i32 0, i32 10
  %158 = load i32, ptr %157, align 4, !tbaa !86
  %159 = shl i32 %158, 16
  %160 = add i32 %159, 32768
  %161 = load ptr, ptr %3, align 8, !tbaa !22
  %162 = getelementptr inbounds nuw %struct.FadeContext, ptr %161, i32 0, i32 11
  store i32 %160, ptr %162, align 8, !tbaa !87
  %163 = load ptr, ptr %3, align 8, !tbaa !22
  %164 = getelementptr inbounds nuw %struct.FadeContext, ptr %163, i32 0, i32 9
  %165 = load i32, ptr %164, align 8, !tbaa !79
  %166 = icmp sle i32 %165, 8
  %167 = select i1 %166, ptr @filter_slice_luma, ptr @filter_slice_luma16
  %168 = load ptr, ptr %3, align 8, !tbaa !22
  %169 = getelementptr inbounds nuw %struct.FadeContext, ptr %168, i32 0, i32 24
  store ptr %167, ptr %169, align 8, !tbaa !65
  %170 = load ptr, ptr %3, align 8, !tbaa !22
  %171 = getelementptr inbounds nuw %struct.FadeContext, ptr %170, i32 0, i32 9
  %172 = load i32, ptr %171, align 8, !tbaa !79
  %173 = icmp sle i32 %172, 8
  %174 = select i1 %173, ptr @filter_slice_chroma, ptr @filter_slice_chroma16
  %175 = load ptr, ptr %3, align 8, !tbaa !22
  %176 = getelementptr inbounds nuw %struct.FadeContext, ptr %175, i32 0, i32 25
  store ptr %174, ptr %176, align 8, !tbaa !67
  %177 = load ptr, ptr %3, align 8, !tbaa !22
  %178 = getelementptr inbounds nuw %struct.FadeContext, ptr %177, i32 0, i32 9
  %179 = load i32, ptr %178, align 8, !tbaa !79
  %180 = icmp sle i32 %179, 8
  %181 = select i1 %180, ptr @filter_slice_alpha, ptr @filter_slice_alpha16
  %182 = load ptr, ptr %3, align 8, !tbaa !22
  %183 = getelementptr inbounds nuw %struct.FadeContext, ptr %182, i32 0, i32 26
  store ptr %181, ptr %183, align 8, !tbaa !62
  call void @llvm.lifetime.end.p0(i64 8, ptr %4) #11
  call void @llvm.lifetime.end.p0(i64 8, ptr %3) #11
  ret i32 0
}