; Function Attrs: nounwind uwtable
define internal noundef i32 @config_input(ptr noundef readonly captures(none) %0) #1 {
  %2 = getelementptr inbounds nuw i8, ptr %0, i64 16
  %3 = load ptr, ptr %2, align 8, !tbaa !31
  %4 = getelementptr inbounds nuw i8, ptr %3, i64 72
  %5 = load ptr, ptr %4, align 8, !tbaa !4
  %6 = getelementptr inbounds nuw i8, ptr %0, i64 36
  %7 = load i32, ptr %6, align 4, !tbaa !59
  %8 = tail call ptr @av_pix_fmt_desc_get(i32 noundef %7) #9
  %9 = getelementptr inbounds nuw i8, ptr %8, i64 9
  %10 = load i8, ptr %9, align 1, !tbaa !60
  %11 = zext i8 %10 to i32
  %12 = getelementptr inbounds nuw i8, ptr %5, i64 28
  store i32 %11, ptr %12, align 4, !tbaa !62
  %13 = getelementptr inbounds nuw i8, ptr %8, i64 10
  %14 = load i8, ptr %13, align 2, !tbaa !63
  %15 = zext i8 %14 to i32
  %16 = getelementptr inbounds nuw i8, ptr %5, i64 32
  store i32 %15, ptr %16, align 8, !tbaa !64
  %17 = getelementptr inbounds nuw i8, ptr %5, i64 54
  %18 = load i32, ptr %6, align 4, !tbaa !59
  %19 = tail call i32 @ff_fill_rgba_map(ptr noundef nonnull %17, i32 noundef %18) #9
  %20 = getelementptr inbounds nuw i8, ptr %8, i64 40
  %21 = load i32, ptr %20, align 8, !tbaa !65
  %22 = getelementptr inbounds nuw i8, ptr %5, i64 40
  store i32 %21, ptr %22, align 8, !tbaa !67
  %23 = getelementptr inbounds nuw i8, ptr %8, i64 16
  %24 = load i64, ptr %23, align 8, !tbaa !68
  %25 = and i64 %24, 16
  %.not = icmp eq i64 %25, 0
  br i1 %.not, label %26, label %29

26:                                               ; preds = %1
  %27 = tail call i32 @av_get_bits_per_pixel(ptr noundef nonnull %8) #9
  %28 = ashr i32 %27, 3
  %.pre = load i64, ptr %23, align 8, !tbaa !68
  br label %29

29:                                               ; preds = %1, %26
  %30 = phi i64 [ %.pre, %26 ], [ %24, %1 ]
  %31 = phi i32 [ %28, %26 ], [ 1, %1 ]
  %32 = getelementptr inbounds nuw i8, ptr %5, i64 36
  store i32 %31, ptr %32, align 4, !tbaa !69
  %33 = trunc i64 %30 to i32
  %34 = lshr i32 %33, 7
  %35 = getelementptr inbounds nuw i8, ptr %5, i64 60
  %36 = load i32, ptr %35, align 4, !tbaa !28
  %37 = and i32 %36, 1
  %38 = and i32 %37, %34
  store i32 %38, ptr %35, align 4, !tbaa !28
  %39 = and i32 %33, 16
  %40 = getelementptr inbounds nuw i8, ptr %5, i64 64
  store i32 %39, ptr %40, align 8, !tbaa !70
  %41 = trunc i64 %30 to i8
  %42 = and i8 %41, 32
  %43 = getelementptr inbounds nuw i8, ptr %5, i64 52
  store i8 %42, ptr %43, align 4, !tbaa !51
  %.not45 = icmp eq i32 %39, 0
  %.lobit = lshr exact i8 %42, 5
  %spec.select = select i1 %.not45, i8 %.lobit, i8 0
  %44 = getelementptr inbounds nuw i8, ptr %5, i64 53
  store i8 %spec.select, ptr %44, align 1, !tbaa !71
  %45 = getelementptr inbounds nuw i8, ptr %5, i64 80
  %46 = load i64, ptr %45, align 8, !tbaa !25
  %.not46 = icmp eq i64 %46, 0
  br i1 %.not46, label %52, label %47

47:                                               ; preds = %29
  %48 = getelementptr inbounds nuw i8, ptr %0, i64 96
  %49 = load i64, ptr %48, align 8
  %50 = tail call i64 @av_rescale_q(i64 noundef %46, i64 4294967296000001, i64 %49) #11
  %51 = getelementptr inbounds nuw i8, ptr %5, i64 96
  store i64 %50, ptr %51, align 8, !tbaa !49
  br label %52

52:                                               ; preds = %47, %29
  %53 = getelementptr inbounds nuw i8, ptr %5, i64 72
  %54 = load i64, ptr %53, align 8, !tbaa !29
  %.not47 = icmp eq i64 %54, 0
  br i1 %.not47, label %60, label %55

55:                                               ; preds = %52
  %56 = getelementptr inbounds nuw i8, ptr %0, i64 96
  %57 = load i64, ptr %56, align 8
  %58 = tail call i64 @av_rescale_q(i64 noundef %54, i64 4294967296000001, i64 %57) #11
  %59 = getelementptr inbounds nuw i8, ptr %5, i64 88
  store i64 %58, ptr %59, align 8, !tbaa !46
  br label %60

60:                                               ; preds = %55, %52
  %61 = load i32, ptr %6, align 4, !tbaa !59
  %62 = tail call i32 @ff_fmt_is_in(i32 noundef %61, ptr noundef nonnull @studio_level_pix_fmts) #9
  %.not48 = icmp eq i32 %62, 0
  br i1 %.not48, label %._crit_edge, label %63

._crit_edge:                                      ; preds = %60
  %.pre50 = load i32, ptr %22, align 8, !tbaa !67
  br label %68

63:                                               ; preds = %60
  %64 = load i32, ptr %35, align 4, !tbaa !28
  %.not49 = icmp eq i32 %64, 0
  %.pre51 = load i32, ptr %22, align 8, !tbaa !67
  br i1 %.not49, label %65, label %68

65:                                               ; preds = %63
  %66 = add nsw i32 %.pre51, -8
  %67 = shl i32 16, %66
  br label %68

68:                                               ; preds = %._crit_edge, %63, %65
  %69 = phi i32 [ %.pre51, %65 ], [ %.pre51, %63 ], [ %.pre50, %._crit_edge ]
  %70 = phi i32 [ %67, %65 ], [ 0, %63 ], [ 0, %._crit_edge ]
  %71 = getelementptr inbounds nuw i8, ptr %5, i64 44
  store i32 %70, ptr %71, align 4, !tbaa !72
  %72 = shl i32 %70, 16
  %73 = or disjoint i32 %72, 32768
  %74 = getelementptr inbounds nuw i8, ptr %5, i64 48
  store i32 %73, ptr %74, align 8, !tbaa !73
  %75 = icmp slt i32 %69, 9
  %76 = select i1 %75, ptr @filter_slice_luma, ptr @filter_slice_luma16
  %77 = getelementptr inbounds nuw i8, ptr %5, i64 120
  store ptr %76, ptr %77, align 8, !tbaa !52
  %78 = select i1 %75, ptr @filter_slice_chroma, ptr @filter_slice_chroma16
  %79 = getelementptr inbounds nuw i8, ptr %5, i64 128
  store ptr %78, ptr %79, align 8, !tbaa !55
  %80 = select i1 %75, ptr @filter_slice_alpha, ptr @filter_slice_alpha16
  %81 = getelementptr inbounds nuw i8, ptr %5, i64 136
  store ptr %80, ptr %81, align 8, !tbaa !50
  ret i32 0
}